Certificate:
    Data:
        Version: 3 (0x2)
        Serial Number: 12110360869009884577 (0xa810a50c032005a1)
    Signature Algorithm: sha1WithRSAEncryption
        Issuer: C=TR, ST=mbfuzzer, O=mbfuzzer ltd, OU=mbfuzzer dev team, CN=*.mbfuzzer.com/emailAddress=info@mbfuzzer.com
        Validity
            Not Before: Apr 22 16:08:30 2013 GMT
            Not After : Apr 21 16:08:30 2016 GMT
        Subject: C=TR, ST=mbfuzzer, O=mbfuzzer ltd, OU=mbfuzzer dev team, CN=*.mbfuzzer.com/emailAddress=info@mbfuzzer.com
        Subject Public Key Info:
            Public Key Algorithm: rsaEncryption
                Public-Key: (2048 bit)
                Modulus:
                    00:b9:90:97:ec:52:95:9f:9a:f7:99:06:b3:e7:c4:
                    1a:a3:04:69:a4:37:34:3f:69:a3:16:30:01:5d:d2:
                    99:6e:af:e5:77:38:01:75:9a:e6:48:6e:a8:79:03:
                    21:0c:7c:75:2c:e5:21:31:09:a0:3f:31:01:dd:fd:
                    0f:c6:2f:1d:84:29:b4:e0:2f:f6:c1:ff:12:eb:9e:
                    87:0e:ab:66:78:74:0d:d7:6b:7f:9e:5f:ac:87:20:
                    56:69:47:c4:8f:df:7c:a1:f4:a3:68:b8:71:6d:71:
                    09:75:99:0a:82:63:b3:ce:a3:38:96:ec:fb:b3:5a:
                    00:7a:11:e2:e1:8a:3d:90:82:e4:81:6b:89:47:46:
                    ee:4c:d3:e4:b1:9b:a6:87:3d:c6:71:57:eb:3a:ea:
                    08:aa:59:13:78:f4:e0:4c:9a:07:11:7e:9f:25:9a:
                    7a:27:ee:9a:df:ce:d2:39:be:b0:bc:f7:a6:a0:a0:
                    ab:02:0a:62:3c:25:44:4a:87:67:98:61:fc:6a:c5:
                    ef:b3:49:a7:57:65:7c:d5:bb:ca:f8:32:b1:2f:78:
                    32:1a:c2:b3:dd:ad:1a:b8:93:4e:52:db:bf:0a:93:
                    a6:66:fe:fa:77:24:c5:a9:3a:50:a9:1e:7b:89:f5:
                    92:68:34:c0:60:37:3b:71:7c:19:c2:02:df:bd:5c:
                    be:1d
                Exponent: 65537 (0x10001)
        X509v3 extensions:
            X509v3 Subject Key Identifier: 
                E2:7B:55:63:EF:51:15:E7:20:A5:A6:E9:08:C7:B4:F6:CD:E0:E5:AD
            X509v3 Authority Key Identifier: 
                keyid:E2:7B:55:63:EF:51:15:E7:20:A5:A6:E9:08:C7:B4:F6:CD:E0:E5:AD

            X509v3 Basic Constraints: 
                CA:TRUE
    Signature Algorithm: sha1WithRSAEncryption
         7f:87:45:38:2a:7e:34:0b:15:12:0b:ab:c1:5e:16:16:14:3e:
         10:54:ed:b0:6e:9b:07:43:88:ae:e1:35:8a:c6:6d:c3:a0:32:
         74:81:b9:be:2d:a7:d4:c1:32:3b:28:32:c1:d9:c2:88:c1:b7:
         26:91:40:c5:7b:d4:38:46:d4:89:21:bb:78:5c:3a:52:18:09:
         92:ac:aa:57:15:a2:4c:16:4f:00:d0:c8:99:8c:ab:23:3f:6c:
         b1:c2:1e:d6:5c:53:14:24:ce:a1:76:44:bd:12:c0:5d:a8:55:
         40:9e:26:72:1a:17:fb:33:e6:79:c4:10:4e:c8:5a:e3:45:17:
         f9:8a:ce:e0:35:22:3d:c8:ca:15:bd:42:46:74:d8:91:52:83:
         31:f9:e9:53:65:fb:50:5a:6e:4f:29:bc:b1:3d:5a:3a:7f:d9:
         53:92:9e:6b:6d:a3:c9:52:9a:65:65:08:cf:3b:fc:e5:38:06:
         88:34:b6:8e:42:b6:f6:f4:54:97:4a:ff:55:b4:ca:08:3d:ff:
         2a:92:92:a1:3e:5d:3b:2d:f6:8a:bd:0f:3a:21:87:d0:bf:46:
         56:ad:82:87:7b:51:ba:43:c5:7d:4c:9c:e0:da:27:e4:c4:75:
         b6:d1:9f:d4:38:84:16:0d:bc:30:23:2a:6e:5f:79:ed:4a:2a:
         91:c5:21:56
-----BEGIN CERTIFICATE-----
MIID8TCCAtmgAwIBAgIJAKgQpQwDIAWhMA0GCSqGSIb3DQEBBQUAMIGOMQswCQYD
VQQGEwJUUjERMA8GA1UECAwIbWJmdXp6ZXIxFTATBgNVBAoMDG1iZnV6emVyIGx0
ZDEaMBgGA1UECwwRbWJmdXp6ZXIgZGV2IHRlYW0xFzAVBgNVBAMMDioubWJmdXp6
ZXIuY29tMSAwHgYJKoZIhvcNAQkBFhFpbmZvQG1iZnV6emVyLmNvbTAeFw0xMzA0
MjIxNjA4MzBaFw0xNjA0MjExNjA4MzBaMIGOMQswCQYDVQQGEwJUUjERMA8GA1UE
CAwIbWJmdXp6ZXIxFTATBgNVBAoMDG1iZnV6emVyIGx0ZDEaMBgGA1UECwwRbWJm
dXp6ZXIgZGV2IHRlYW0xFzAVBgNVBAMMDioubWJmdXp6ZXIuY29tMSAwHgYJKoZI
hvcNAQkBFhFpbmZvQG1iZnV6emVyLmNvbTCCASIwDQYJKoZIhvcNAQEBBQADggEP
ADCCAQoCggEBALmQl+xSlZ+a95kGs+fEGqMEaaQ3ND9poxYwAV3SmW6v5Xc4AXWa
5khuqHkDIQx8dSzlITEJoD8xAd39D8YvHYQptOAv9sH/Euuehw6rZnh0Dddrf55f
rIcgVmlHxI/ffKH0o2i4cW1xCXWZCoJjs86jOJbs+7NaAHoR4uGKPZCC5IFriUdG
7kzT5LGbpoc9xnFX6zrqCKpZE3j04EyaBxF+nyWaeifumt/O0jm+sLz3pqCgqwIK
YjwlREqHZ5hh/GrF77NJp1dlfNW7yvgysS94MhrCs92tGriTTlLbvwqTpmb++nck
xak6UKkee4n1kmg0wGA3O3F8GcIC371cvh0CAwEAAaNQME4wHQYDVR0OBBYEFOJ7
VWPvURXnIKWm6QjHtPbN4OWtMB8GA1UdIwQYMBaAFOJ7VWPvURXnIKWm6QjHtPbN
4OWtMAwGA1UdEwQFMAMBAf8wDQYJKoZIhvcNAQEFBQADggEBAH+HRTgqfjQLFRIL
q8FeFhYUPhBU7bBumwdDiK7hNYrGbcOgMnSBub4tp9TBMjsoMsHZwojBtyaRQMV7
1DhG1Ikhu3hcOlIYCZKsqlcVokwWTwDQyJmMqyM/bLHCHtZcUxQkzqF2RL0SwF2o
VUCeJnIaF/sz5nnEEE7IWuNFF/mKzuA1Ij3IyhW9QkZ02JFSgzH56VNl+1Babk8p
vLE9Wjp/2VOSnmtto8lSmmVlCM87/OU4Bog0to5Ctvb0VJdK/1W0ygg9/yqSkqE+
XTst9oq9Dzohh9C/Rlatgod7UbpDxX1MnODaJ+TEdbbRn9Q4hBYNvDAjKm5fee1K
KpHFIVY=
-----END CERTIFICATE-----
